target datalayout = "e-m:e-p270:32:32-p271:32:32-p272:64:64-i64:64-i128:128-f80:128-n8:16:32:64-S128"
target triple = "x86_64-pc-linux-gnu"

%struct.pmix_class_t = type { ptr, ptr, ptr, ptr, i32, i32, ptr, ptr, i64 }
%struct.pmix_pointer_array_t = type { %struct.pmix_object_t, i32, i32, i32, i32, i32, ptr, ptr }
%struct.pmix_object_t = type { %union.pthread_mutex_t, ptr, i32, %struct.pmix_tma }
%union.pthread_mutex_t = type { %struct.__pthread_mutex_s }
%struct.__pthread_mutex_s = type { i32, i32, i32, i32, i32, i16, i16, %struct.__pthread_internal_list }
%struct.__pthread_internal_list = type { ptr, ptr }
%struct.pmix_tma = type { ptr, ptr, ptr, ptr, ptr, ptr, ptr, ptr }
%struct.pmix_info_component_map_t = type { %struct.pmix_list_item_t, ptr, ptr, ptr }
%struct.pmix_list_item_t = type { %struct.pmix_object_t, ptr, ptr, i32 }
%struct.pmix_mca_base_framework_t = type { ptr, ptr, ptr, ptr, ptr, ptr, i32, i32, ptr, ptr, i32, i32, %struct.pmix_list_t, %struct.pmix_list_t }
%struct.pmix_list_t = type { %struct.pmix_object_t, %struct.pmix_list_item_t, i64 }

@pmix_info_register_flags = dso_local global i32 1, align 4
@pmix_info_component_map_t_class = dso_local global %struct.pmix_class_t { ptr @.str.28, ptr @pmix_list_item_t_class, ptr @component_map_construct, ptr @component_map_destruct, i32 0, i32 0, ptr null, ptr null, i64 168 }, align 8
@stderr = external global ptr, align 8
@.str.40 = private unnamed_addr constant [75 x i8] c"\0AA \22bad parameter\22 error was encountered when opening the %s %s framework\0A\00", align 1
@.str.41 = private unnamed_addr constant [77 x i8] c"The output received from that framework includes the following parameters:\0A\0A\00", align 1
@.str.42 = private unnamed_addr constant [29 x i8] c"%s_info_register: %s failed\0A\00", align 1
@pmix_component_map = external global %struct.pmix_pointer_array_t, align 8
@pmix_class_init_epoch = external global i32, align 4

; Function Attrs: inlinehint nounwind uwtable
define internal void @pmix_obj_run_constructors(ptr noundef %0) #4 {
  %2 = alloca ptr, align 8
  %3 = alloca ptr, align 8
  store ptr %0, ptr %2, align 8, !tbaa !21
  call void @llvm.lifetime.start.p0(i64 8, ptr %3) #13
  %4 = load ptr, ptr %2, align 8, !tbaa !21
  %5 = getelementptr inbounds nuw %struct.pmix_object_t, ptr %4, i32 0, i32 1
  %6 = load ptr, ptr %5, align 8, !tbaa !30
  %7 = getelementptr inbounds nuw %struct.pmix_class_t, ptr %6, i32 0, i32 6
  %8 = load ptr, ptr %7, align 8, !tbaa !165
  store ptr %8, ptr %3, align 8, !tbaa !4
  br label %9

9:                                                ; preds = %13, %1
  %10 = load ptr, ptr %3, align 8, !tbaa !4
  %11 = load ptr, ptr %10, align 8, !tbaa !4
  %12 = icmp ne ptr null, %11
  br i1 %12, label %13, label %19

13:                                               ; preds = %9
  %14 = load ptr, ptr %3, align 8, !tbaa !4
  %15 = load ptr, ptr %14, align 8, !tbaa !4
  %16 = load ptr, ptr %2, align 8, !tbaa !21
  call void %15(ptr noundef %16)
  %17 = load ptr, ptr %3, align 8, !tbaa !4
  %18 = getelementptr inbounds nuw ptr, ptr %17, i32 1
  store ptr %18, ptr %3, align 8, !tbaa !4
  br label %9, !llvm.loop !166

19:                                               ; preds = %9
  call void @llvm.lifetime.end.p0(i64 8, ptr %3) #13
  ret void
}

; Function Attrs: inlinehint nounwind uwtable
define internal ptr @pmix_tma_malloc(ptr noundef %0, i64 noundef %1) #4 {
  %3 = alloca ptr, align 8
  %4 = alloca ptr, align 8
  %5 = alloca i64, align 8
  store ptr %0, ptr %4, align 8, !tbaa !36
  store i64 %1, ptr %5, align 8, !tbaa !55
  %6 = load ptr, ptr %4, align 8, !tbaa !36
  %7 = icmp ne ptr null, %6
  br i1 %7, label %8, label %15

8:                                                ; preds = %2
  %9 = load ptr, ptr %4, align 8, !tbaa !36
  %10 = getelementptr inbounds nuw %struct.pmix_tma, ptr %9, i32 0, i32 0
  %11 = load ptr, ptr %10, align 8, !tbaa !164
  %12 = load ptr, ptr %4, align 8, !tbaa !36
  %13 = load i64, ptr %5, align 8, !tbaa !55
  %14 = call ptr %11(ptr noundef %12, i64 noundef %13)
  store ptr %14, ptr %3, align 8
  br label %18

15:                                               ; preds = %2
  %16 = load i64, ptr %5, align 8, !tbaa !55
  %17 = call noalias ptr @malloc(i64 noundef %16) #18
  store ptr %17, ptr %3, align 8
  br label %18

18:                                               ; preds = %15, %8
  %19 = load ptr, ptr %3, align 8
  ret ptr %19
}

; Function Attrs: inlinehint nounwind uwtable
define internal ptr @pmix_obj_new_tma(ptr noundef %0, ptr noundef %1) #4 {
  %3 = alloca ptr, align 8
  %4 = alloca ptr, align 8
  %5 = alloca ptr, align 8
  store ptr %0, ptr %3, align 8, !tbaa !154
  store ptr %1, ptr %4, align 8, !tbaa !36
  call void @llvm.lifetime.start.p0(i64 8, ptr %5) #13
  %6 = load ptr, ptr %4, align 8, !tbaa !36
  %7 = load ptr, ptr %3, align 8, !tbaa !154
  %8 = getelementptr inbounds nuw %struct.pmix_class_t, ptr %7, i32 0, i32 8
  %9 = load i64, ptr %8, align 8, !tbaa !155
  %10 = call ptr @pmix_tma_malloc(ptr noundef %6, i64 noundef %9)
  store ptr %10, ptr %5, align 8, !tbaa !21
  %11 = load i32, ptr @pmix_class_init_epoch, align 4, !tbaa !18
  %12 = load ptr, ptr %3, align 8, !tbaa !154
  %13 = getelementptr inbounds nuw %struct.pmix_class_t, ptr %12, i32 0, i32 4
  %14 = load i32, ptr %13, align 8, !tbaa !156
  %15 = icmp ne i32 %11, %14
  br i1 %15, label %16, label %18

16:                                               ; preds = %2
  %17 = load ptr, ptr %3, align 8, !tbaa !154
  call void @pmix_class_initialize(ptr noundef %17)
  br label %18

18:                                               ; preds = %16, %2
  %19 = load ptr, ptr %5, align 8, !tbaa !21
  %20 = icmp ne ptr null, %19
  br i1 %20, label %21, label %60

21:                                               ; preds = %18
  %22 = load ptr, ptr %5, align 8, !tbaa !21
  %23 = getelementptr inbounds nuw %struct.pmix_object_t, ptr %22, i32 0, i32 0
  %24 = call i32 @pthread_mutex_init(ptr noundef %23, ptr noundef null) #13
  %25 = load ptr, ptr %3, align 8, !tbaa !154
  %26 = load ptr, ptr %5, align 8, !tbaa !21
  %27 = getelementptr inbounds nuw %struct.pmix_object_t, ptr %26, i32 0, i32 1
  store ptr %25, ptr %27, align 8, !tbaa !30
  %28 = load ptr, ptr %5, align 8, !tbaa !21
  %29 = getelementptr inbounds nuw %struct.pmix_object_t, ptr %28, i32 0, i32 2
  store i32 1, ptr %29, align 8, !tbaa !29
  %30 = load ptr, ptr %4, align 8, !tbaa !36
  %31 = icmp eq ptr null, %30
  br i1 %31, label %32, label %54

32:                                               ; preds = %21
  %33 = load ptr, ptr %5, align 8, !tbaa !21
  %34 = getelementptr inbounds nuw %struct.pmix_object_t, ptr %33, i32 0, i32 3
  %35 = getelementptr inbounds nuw %struct.pmix_tma, ptr %34, i32 0, i32 0
  store ptr null, ptr %35, align 8, !tbaa !157
  %36 = load ptr, ptr %5, align 8, !tbaa !21
  %37 = getelementptr inbounds nuw %struct.pmix_object_t, ptr %36, i32 0, i32 3
  %38 = getelementptr inbounds nuw %struct.pmix_tma, ptr %37, i32 0, i32 1
  store ptr null, ptr %38, align 8, !tbaa !158
  %39 = load ptr, ptr %5, align 8, !tbaa !21
  %40 = getelementptr inbounds nuw %struct.pmix_object_t, ptr %39, i32 0, i32 3
  %41 = getelementptr inbounds nuw %struct.pmix_tma, ptr %40, i32 0, i32 2
  store ptr null, ptr %41, align 8, !tbaa !159
  %42 = load ptr, ptr %5, align 8, !tbaa !21
  %43 = getelementptr inbounds nuw %struct.pmix_object_t, ptr %42, i32 0, i32 3
  %44 = getelementptr inbounds nuw %struct.pmix_tma, ptr %43, i32 0, i32 3
  store ptr null, ptr %44, align 8, !tbaa !160
  %45 = load ptr, ptr %5, align 8, !tbaa !21
  %46 = getelementptr inbounds nuw %struct.pmix_object_t, ptr %45, i32 0, i32 3
  %47 = getelementptr inbounds nuw %struct.pmix_tma, ptr %46, i32 0, i32 5
  store ptr null, ptr %47, align 8, !tbaa !23
  %48 = load ptr, ptr %5, align 8, !tbaa !21
  %49 = getelementptr inbounds nuw %struct.pmix_object_t, ptr %48, i32 0, i32 3
  %50 = getelementptr inbounds nuw %struct.pmix_tma, ptr %49, i32 0, i32 6
  store ptr null, ptr %50, align 8, !tbaa !161
  %51 = load ptr, ptr %5, align 8, !tbaa !21
  %52 = getelementptr inbounds nuw %struct.pmix_object_t, ptr %51, i32 0, i32 3
  %53 = getelementptr inbounds nuw %struct.pmix_tma, ptr %52, i32 0, i32 7
  store ptr null, ptr %53, align 8, !tbaa !162
  br label %58

54:                                               ; preds = %21
  %55 = load ptr, ptr %5, align 8, !tbaa !21
  %56 = getelementptr inbounds nuw %struct.pmix_object_t, ptr %55, i32 0, i32 3
  %57 = load ptr, ptr %4, align 8, !tbaa !36
  call void @llvm.memcpy.p0.p0.i64(ptr align 8 %56, ptr align 8 %57, i64 64, i1 false), !tbaa.struct !163
  br label %58

58:                                               ; preds = %54, %32
  %59 = load ptr, ptr %5, align 8, !tbaa !21
  call void @pmix_obj_run_constructors(ptr noundef %59)
  br label %60

60:                                               ; preds = %58, %18
  %61 = load ptr, ptr %5, align 8, !tbaa !21
  call void @llvm.lifetime.end.p0(i64 8, ptr %5) #13
  ret ptr %61
}

; Function Attrs: nounwind uwtable
define internal i32 @info_register_framework(ptr noundef %0) #0 {
  %2 = alloca i32, align 4
  %3 = alloca ptr, align 8
  %4 = alloca ptr, align 8
  %5 = alloca i32, align 4
  %6 = alloca i32, align 4
  store ptr %0, ptr %3, align 8, !tbaa !41
  call void @llvm.lifetime.start.p0(i64 8, ptr %4) #13
  call void @llvm.lifetime.start.p0(i64 4, ptr %5) #13
  %7 = load ptr, ptr %3, align 8, !tbaa !41
  %8 = load i32, ptr @pmix_info_register_flags, align 4, !tbaa !18
  %9 = call i32 @pmix_mca_base_framework_register(ptr noundef %7, i32 noundef %8)
  store i32 %9, ptr %5, align 4, !tbaa !18
  %10 = load i32, ptr %5, align 4, !tbaa !18
  %11 = icmp ne i32 0, %10
  br i1 %11, label %12, label %17

12:                                               ; preds = %1
  %13 = load i32, ptr %5, align 4, !tbaa !18
  %14 = icmp ne i32 -27, %13
  br i1 %14, label %15, label %17

15:                                               ; preds = %12
  %16 = load i32, ptr %5, align 4, !tbaa !18
  store i32 %16, ptr %2, align 4
  store i32 1, ptr %6, align 4
  br label %36

17:                                               ; preds = %12, %1
  %18 = call ptr @pmix_obj_new_tma(ptr noundef @pmix_info_component_map_t_class, ptr noundef null)
  store ptr %18, ptr %4, align 8, !tbaa !4
  %19 = load ptr, ptr %3, align 8, !tbaa !41
  %20 = getelementptr inbounds nuw %struct.pmix_mca_base_framework_t, ptr %19, i32 0, i32 1
  %21 = load ptr, ptr %20, align 8, !tbaa !43
  %22 = call noalias ptr @strdup(ptr noundef %21) #13
  %23 = load ptr, ptr %4, align 8, !tbaa !4
  %24 = getelementptr inbounds nuw %struct.pmix_info_component_map_t, ptr %23, i32 0, i32 1
  store ptr %22, ptr %24, align 8, !tbaa !8
  %25 = load ptr, ptr %3, align 8, !tbaa !41
  %26 = getelementptr inbounds nuw %struct.pmix_mca_base_framework_t, ptr %25, i32 0, i32 12
  %27 = load ptr, ptr %4, align 8, !tbaa !4
  %28 = getelementptr inbounds nuw %struct.pmix_info_component_map_t, ptr %27, i32 0, i32 2
  store ptr %26, ptr %28, align 8, !tbaa !48
  %29 = load ptr, ptr %3, align 8, !tbaa !41
  %30 = getelementptr inbounds nuw %struct.pmix_mca_base_framework_t, ptr %29, i32 0, i32 13
  %31 = load ptr, ptr %4, align 8, !tbaa !4
  %32 = getelementptr inbounds nuw %struct.pmix_info_component_map_t, ptr %31, i32 0, i32 3
  store ptr %30, ptr %32, align 8, !tbaa !49
  %33 = load ptr, ptr %4, align 8, !tbaa !4
  %34 = call i32 @pmix_pointer_array_add(ptr noundef @pmix_component_map, ptr noundef %33)
  %35 = load i32, ptr %5, align 4, !tbaa !18
  store i32 %35, ptr %2, align 4
  store i32 1, ptr %6, align 4
  br label %36

36:                                               ; preds = %17, %15
  call void @llvm.lifetime.end.p0(i64 4, ptr %5) #13
  call void @llvm.lifetime.end.p0(i64 8, ptr %4) #13
  %37 = load i32, ptr %2, align 4
  ret i32 %37
}

; Function Attrs: nounwind uwtable
define dso_local i32 @pmix_info_register_project_frameworks(ptr noundef %0, ptr noundef %1) #0 {
  %3 = alloca ptr, align 8
  %4 = alloca ptr, align 8
  %5 = alloca i32, align 4
  %6 = alloca i32, align 4
  store ptr %0, ptr %3, align 8, !tbaa !24
  store ptr %1, ptr %4, align 8, !tbaa !39
  call void @llvm.lifetime.start.p0(i64 4, ptr %5) #13
  call void @llvm.lifetime.start.p0(i64 4, ptr %6) #13
  store i32 0, ptr %6, align 4, !tbaa !18
  store i32 0, ptr %5, align 4, !tbaa !18
  br label %7

7:                                                ; preds = %56, %2
  %8 = load ptr, ptr %4, align 8, !tbaa !39
  %9 = load i32, ptr %5, align 4, !tbaa !18
  %10 = sext i32 %9 to i64
  %11 = getelementptr inbounds ptr, ptr %8, i64 %10
  %12 = load ptr, ptr %11, align 8, !tbaa !41
  %13 = icmp ne ptr null, %12
  br i1 %13, label %14, label %59

14:                                               ; preds = %7
  %15 = load ptr, ptr %4, align 8, !tbaa !39
  %16 = load i32, ptr %5, align 4, !tbaa !18
  %17 = sext i32 %16 to i64
  %18 = getelementptr inbounds ptr, ptr %15, i64 %17
  %19 = load ptr, ptr %18, align 8, !tbaa !41
  %20 = call i32 @info_register_framework(ptr noundef %19)
  store i32 %20, ptr %6, align 4, !tbaa !18
  %21 = icmp ne i32 0, %20
  br i1 %21, label %22, label %55

22:                                               ; preds = %14
  %23 = load i32, ptr %6, align 4, !tbaa !18
  %24 = icmp eq i32 -27, %23
  br i1 %24, label %25, label %38

25:                                               ; preds = %22
  %26 = load ptr, ptr @stderr, align 8, !tbaa !25
  %27 = load ptr, ptr %3, align 8, !tbaa !24
  %28 = load ptr, ptr %4, align 8, !tbaa !39
  %29 = load i32, ptr %5, align 4, !tbaa !18
  %30 = sext i32 %29 to i64
  %31 = getelementptr inbounds ptr, ptr %28, i64 %30
  %32 = load ptr, ptr %31, align 8, !tbaa !41
  %33 = getelementptr inbounds nuw %struct.pmix_mca_base_framework_t, ptr %32, i32 0, i32 1
  %34 = load ptr, ptr %33, align 8, !tbaa !43
  %35 = call i32 (ptr, ptr, ...) @fprintf(ptr noundef %26, ptr noundef @.str.40, ptr noundef %27, ptr noundef %34) #13
  %36 = load ptr, ptr @stderr, align 8, !tbaa !25
  %37 = call i32 (ptr, ptr, ...) @fprintf(ptr noundef %36, ptr noundef @.str.41) #13
  br label %54

38:                                               ; preds = %22
  %39 = load i32, ptr %6, align 4, !tbaa !18
  %40 = icmp ne i32 -64, %39
  br i1 %40, label %41, label %52

41:                                               ; preds = %38
  %42 = load ptr, ptr @stderr, align 8, !tbaa !25
  %43 = load ptr, ptr %3, align 8, !tbaa !24
  %44 = load ptr, ptr %4, align 8, !tbaa !39
  %45 = load i32, ptr %5, align 4, !tbaa !18
  %46 = sext i32 %45 to i64
  %47 = getelementptr inbounds ptr, ptr %44, i64 %46
  %48 = load ptr, ptr %47, align 8, !tbaa !41
  %49 = getelementptr inbounds nuw %struct.pmix_mca_base_framework_t, ptr %48, i32 0, i32 1
  %50 = load ptr, ptr %49, align 8, !tbaa !43
  %51 = call i32 (ptr, ptr, ...) @fprintf(ptr noundef %42, ptr noundef @.str.42, ptr noundef %43, ptr noundef %50) #13
  store i32 -1, ptr %6, align 4, !tbaa !18
  br label %53

52:                                               ; preds = %38
  br label %56

53:                                               ; preds = %41
  br label %54

54:                                               ; preds = %53, %25
  br label %59

55:                                               ; preds = %14
  br label %56

56:                                               ; preds = %55, %52
  %57 = load i32, ptr %5, align 4, !tbaa !18
  %58 = add nsw i32 %57, 1
  store i32 %58, ptr %5, align 4, !tbaa !18
  br label %7, !llvm.loop !47

59:                                               ; preds = %54, %7
  %60 = load i32, ptr %6, align 4, !tbaa !18
  call void @llvm.lifetime.end.p0(i64 4, ptr %6) #13
  call void @llvm.lifetime.end.p0(i64 4, ptr %5) #13
  ret i32 %60
}