; Function Attrs: nounwind uwtable
define dso_local range(i32 -64, 1) i32 @pmix_info_register_project_frameworks(ptr noundef %0, ptr noundef readonly captures(none) %1) local_unnamed_addr #2 {
  %3 = load ptr, ptr %1, align 8, !tbaa !37
  %.not23 = icmp eq ptr %3, null
  br i1 %.not23, label %.loopexit, label %.lr.ph

.lr.ph:                                           ; preds = %2, %50
  %indvars.iv = phi i64 [ %indvars.iv.next, %50 ], [ 0, %2 ]
  %4 = phi ptr [ %52, %50 ], [ %3, %2 ]
  %5 = load i32, ptr @pmix_info_register_flags, align 4, !tbaa !18
  %6 = tail call i32 @pmix_mca_base_framework_register(ptr noundef nonnull %4, i32 noundef %5) #17
  switch i32 %6, label %43 [
    i32 -27, label %7
    i32 0, label %7
    i32 -64, label %50
  ]

7:                                                ; preds = %.lr.ph, %.lr.ph
  %8 = load i64, ptr getelementptr inbounds nuw (i8, ptr @pmix_info_component_map_t_class, i64 56), align 8, !tbaa !39
  %9 = tail call noalias noundef ptr @malloc(i64 noundef %8) #24
  %10 = load i32, ptr @pmix_class_init_epoch, align 4, !tbaa !18
  %11 = load i32, ptr getelementptr inbounds nuw (i8, ptr @pmix_info_component_map_t_class, i64 32), align 8, !tbaa !40
  %.not.i.i = icmp eq i32 %10, %11
  br i1 %.not.i.i, label %13, label %12

12:                                               ; preds = %7
  tail call void @pmix_class_initialize(ptr noundef nonnull @pmix_info_component_map_t_class) #17
  br label %13

13:                                               ; preds = %12, %7
  %.not22.i.i = icmp eq ptr %9, null
  br i1 %.not22.i.i, label %pmix_obj_new_tma.exit.i, label %14

14:                                               ; preds = %13
  %15 = tail call i32 @pthread_mutex_init(ptr noundef nonnull %9, ptr noundef null) #17
  %16 = getelementptr inbounds nuw i8, ptr %9, i64 40
  store ptr @pmix_info_component_map_t_class, ptr %16, align 8, !tbaa !20
  %17 = getelementptr inbounds nuw i8, ptr %9, i64 48
  store i32 1, ptr %17, align 8, !tbaa !19
  %18 = getelementptr inbounds nuw i8, ptr %9, i64 56
  %19 = getelementptr inbounds nuw i8, ptr %9, i64 96
  tail call void @llvm.memset.p0.i64(ptr noundef nonnull align 8 dereferenceable(32) %18, i8 0, i64 32, i1 false)
  tail call void @llvm.memset.p0.i64(ptr noundef nonnull align 8 dereferenceable(24) %19, i8 0, i64 24, i1 false)
  %20 = load ptr, ptr getelementptr inbounds nuw (i8, ptr @pmix_info_component_map_t_class, i64 40), align 8, !tbaa !41
  %21 = load ptr, ptr %20, align 8, !tbaa !17
  %.not6.i.i.i = icmp eq ptr %21, null
  br i1 %.not6.i.i.i, label %pmix_obj_new_tma.exit.i, label %.lr.ph.i.i.i

.lr.ph.i.i.i:                                     ; preds = %14, %.lr.ph.i.i.i
  %22 = phi ptr [ %24, %.lr.ph.i.i.i ], [ %21, %14 ]
  %.07.i.i.i = phi ptr [ %23, %.lr.ph.i.i.i ], [ %20, %14 ]
  tail call void %22(ptr noundef nonnull %9) #17
  %23 = getelementptr inbounds nuw i8, ptr %.07.i.i.i, i64 8
  %24 = load ptr, ptr %23, align 8, !tbaa !17
  %.not.i.i.i = icmp eq ptr %24, null
  br i1 %.not.i.i.i, label %pmix_obj_new_tma.exit.i, label %.lr.ph.i.i.i, !llvm.loop !42

pmix_obj_new_tma.exit.i:                          ; preds = %.lr.ph.i.i.i, %14, %13
  %25 = getelementptr inbounds nuw i8, ptr %4, i64 8
  %26 = load ptr, ptr %25, align 8, !tbaa !43
  %27 = tail call noalias ptr @strdup(ptr noundef %26) #17
  %28 = getelementptr inbounds nuw i8, ptr %9, i64 144
  store ptr %27, ptr %28, align 8, !tbaa !4
  %29 = getelementptr inbounds nuw i8, ptr %4, i64 80
  %30 = getelementptr inbounds nuw i8, ptr %9, i64 152
  store ptr %29, ptr %30, align 8, !tbaa !47
  %31 = getelementptr inbounds nuw i8, ptr %4, i64 352
  %32 = getelementptr inbounds nuw i8, ptr %9, i64 160
  store ptr %31, ptr %32, align 8, !tbaa !48
  %33 = tail call i32 @pmix_pointer_array_add(ptr noundef nonnull @pmix_component_map, ptr noundef %9) #17
  switch i32 %6, label %43 [
    i32 0, label %50
    i32 -27, label %34
    i32 -64, label %50
  ]

34:                                               ; preds = %pmix_obj_new_tma.exit.i
  %35 = getelementptr inbounds nuw ptr, ptr %1, i64 %indvars.iv
  %36 = load ptr, ptr @stderr, align 8, !tbaa !27
  %37 = load ptr, ptr %35, align 8, !tbaa !37
  %38 = getelementptr inbounds nuw i8, ptr %37, i64 8
  %39 = load ptr, ptr %38, align 8, !tbaa !43
  %40 = tail call i32 (ptr, ptr, ...) @fprintf(ptr noundef %36, ptr noundef nonnull @.str.40, ptr noundef %0, ptr noundef %39) #22
  %41 = load ptr, ptr @stderr, align 8, !tbaa !27
  %42 = tail call i64 @fwrite(ptr nonnull @.str.41, i64 76, i64 1, ptr %41) #19
  br label %.loopexit

43:                                               ; preds = %.lr.ph, %pmix_obj_new_tma.exit.i
  %44 = getelementptr inbounds nuw ptr, ptr %1, i64 %indvars.iv
  %45 = load ptr, ptr @stderr, align 8, !tbaa !27
  %46 = load ptr, ptr %44, align 8, !tbaa !37
  %47 = getelementptr inbounds nuw i8, ptr %46, i64 8
  %48 = load ptr, ptr %47, align 8, !tbaa !43
  %49 = tail call i32 (ptr, ptr, ...) @fprintf(ptr noundef %45, ptr noundef nonnull @.str.42, ptr noundef %0, ptr noundef %48) #22
  br label %.loopexit

50:                                               ; preds = %.lr.ph, %pmix_obj_new_tma.exit.i, %pmix_obj_new_tma.exit.i
  %indvars.iv.next = add nuw nsw i64 %indvars.iv, 1
  %51 = getelementptr inbounds nuw ptr, ptr %1, i64 %indvars.iv.next
  %52 = load ptr, ptr %51, align 8, !tbaa !37
  %.not = icmp eq ptr %52, null
  br i1 %.not, label %.loopexit, label %.lr.ph, !llvm.loop !49

.loopexit:                                        ; preds = %50, %2, %34, %43
  %.1 = phi i32 [ -27, %34 ], [ -1, %43 ], [ 0, %2 ], [ %6, %50 ]
  ret i32 %.1
}